target datalayout = "e-m:e-p270:32:32-p271:32:32-p272:64:64-i64:64-i128:128-f80:128-n8:16:32:64-S128"
target triple = "x86_64-pc-linux-gnu"

%"class.cv::Point_" = type { i32, i32 }
%"class.cv::tracking::impl::tld::TLDEnsembleClassifier" = type <{ %"class.std::vector", %"class.std::vector.0", %"class.std::vector", i32, [4 x i8] }>
%"class.std::vector.0" = type { %"struct.std::_Vector_base.1" }
%"struct.std::_Vector_base.1" = type { %"struct.std::_Vector_base<cv::Vec<unsigned char, 4>, std::allocator<cv::Vec<unsigned char, 4>>>::_Vector_impl" }
%"struct.std::_Vector_base<cv::Vec<unsigned char, 4>, std::allocator<cv::Vec<unsigned char, 4>>>::_Vector_impl" = type { %"struct.std::_Vector_base<cv::Vec<unsigned char, 4>, std::allocator<cv::Vec<unsigned char, 4>>>::_Vector_impl_data" }
%"struct.std::_Vector_base<cv::Vec<unsigned char, 4>, std::allocator<cv::Vec<unsigned char, 4>>>::_Vector_impl_data" = type { ptr, ptr, ptr }
%"class.std::vector" = type { %"struct.std::_Vector_base" }
%"struct.std::_Vector_base" = type { %"struct.std::_Vector_base<cv::Point_<int>, std::allocator<cv::Point_<int>>>::_Vector_impl" }
%"struct.std::_Vector_base<cv::Point_<int>, std::allocator<cv::Point_<int>>>::_Vector_impl" = type { %"struct.std::_Vector_base<cv::Point_<int>, std::allocator<cv::Point_<int>>>::_Vector_impl_data" }
%"struct.std::_Vector_base<cv::Point_<int>, std::allocator<cv::Point_<int>>>::_Vector_impl_data" = type { ptr, ptr, ptr }
%"class.cv::Vec" = type { %"class.cv::Matx" }
%"class.cv::Matx" = type { [4 x i8] }
%"class.cv::Mat" = type { i32, i32, i32, i32, ptr, ptr, ptr, ptr, ptr, ptr, %"struct.cv::MatSize", %"struct.cv::MatStep" }
%"struct.cv::MatSize" = type { ptr }
%"struct.cv::MatStep" = type { ptr, [2 x i64] }

; Function Attrs: mustprogress nounwind uwtable
define linkonce_odr hidden noundef nonnull align 1 dereferenceable(4) ptr @_ZNKSt6vectorIN2cv3VecIhLi4EEESaIS2_EEixEm(ptr noundef nonnull align 8 dereferenceable(24) %0, i64 noundef %1) #5 comdat align 2 {
  %3 = alloca ptr, align 8
  %4 = alloca i64, align 8
  store ptr %0, ptr %3, align 8, !tbaa !8
  store i64 %1, ptr %4, align 8, !tbaa !28
  %5 = load ptr, ptr %3, align 8
  %6 = getelementptr inbounds nuw %"struct.std::_Vector_base.1", ptr %5, i32 0, i32 0
  %7 = getelementptr inbounds nuw %"struct.std::_Vector_base<cv::Vec<unsigned char, 4>, std::allocator<cv::Vec<unsigned char, 4>>>::_Vector_impl_data", ptr %6, i32 0, i32 0
  %8 = load ptr, ptr %7, align 8, !tbaa !42
  %9 = load i64, ptr %4, align 8, !tbaa !28
  %10 = getelementptr inbounds nuw %"class.cv::Vec", ptr %8, i64 %9
  ret ptr %10
}

; Function Attrs: mustprogress nounwind uwtable
define linkonce_odr hidden noundef i64 @_ZNKSt6vectorIN2cv3VecIhLi4EEESaIS2_EE4sizeEv(ptr noundef nonnull align 8 dereferenceable(24) %0) #5 comdat align 2 {
  %2 = alloca ptr, align 8
  store ptr %0, ptr %2, align 8, !tbaa !8
  %3 = load ptr, ptr %2, align 8
  %4 = getelementptr inbounds nuw %"struct.std::_Vector_base.1", ptr %3, i32 0, i32 0
  %5 = getelementptr inbounds nuw %"struct.std::_Vector_base<cv::Vec<unsigned char, 4>, std::allocator<cv::Vec<unsigned char, 4>>>::_Vector_impl_data", ptr %4, i32 0, i32 1
  %6 = load ptr, ptr %5, align 8, !tbaa !43
  %7 = getelementptr inbounds nuw %"struct.std::_Vector_base.1", ptr %3, i32 0, i32 0
  %8 = getelementptr inbounds nuw %"struct.std::_Vector_base<cv::Vec<unsigned char, 4>, std::allocator<cv::Vec<unsigned char, 4>>>::_Vector_impl_data", ptr %7, i32 0, i32 0
  %9 = load ptr, ptr %8, align 8, !tbaa !42
  %10 = ptrtoint ptr %6 to i64
  %11 = ptrtoint ptr %9 to i64
  %12 = sub i64 %10, %11
  %13 = sdiv exact i64 %12, 4
  ret i64 %13
}

; Function Attrs: mustprogress nounwind uwtable
define linkonce_odr hidden noundef nonnull align 4 dereferenceable(8) ptr @_ZNSt6vectorIN2cv6Point_IiEESaIS2_EEixEm(ptr noundef nonnull align 8 dereferenceable(24) %0, i64 noundef %1) #5 comdat align 2 {
  %3 = alloca ptr, align 8
  %4 = alloca i64, align 8
  store ptr %0, ptr %3, align 8, !tbaa !26
  store i64 %1, ptr %4, align 8, !tbaa !28
  %5 = load ptr, ptr %3, align 8
  %6 = getelementptr inbounds nuw %"struct.std::_Vector_base", ptr %5, i32 0, i32 0
  %7 = getelementptr inbounds nuw %"struct.std::_Vector_base<cv::Point_<int>, std::allocator<cv::Point_<int>>>::_Vector_impl_data", ptr %6, i32 0, i32 0
  %8 = load ptr, ptr %7, align 8, !tbaa !40
  %9 = load i64, ptr %4, align 8, !tbaa !28
  %10 = getelementptr inbounds nuw %"class.cv::Point_", ptr %8, i64 %9
  ret ptr %10
}

; Function Attrs: mustprogress nounwind uwtable
define hidden noundef i32 @_ZNK2cv8tracking4impl3tld21TLDEnsembleClassifier4codeEPKhi(ptr noundef nonnull align 8 dereferenceable(76) %0, ptr noundef %1, i32 noundef %2) #5 align 2 {
  %4 = alloca ptr, align 8
  %5 = alloca ptr, align 8
  %6 = alloca i32, align 4
  %7 = alloca i32, align 4
  %8 = alloca i32, align 4
  store ptr %0, ptr %4, align 8, !tbaa !3
  store ptr %1, ptr %5, align 8, !tbaa !62
  store i32 %2, ptr %6, align 4, !tbaa !10
  %9 = load ptr, ptr %4, align 8
  call void @llvm.lifetime.start.p0(i64 4, ptr %7) #3
  store i32 0, ptr %7, align 4, !tbaa !10
  call void @llvm.lifetime.start.p0(i64 4, ptr %8) #3
  store i32 0, ptr %8, align 4, !tbaa !10
  br label %10

10:                                               ; preds = %75, %3
  %11 = load i32, ptr %8, align 4, !tbaa !10
  %12 = getelementptr inbounds nuw %"class.cv::tracking::impl::tld::TLDEnsembleClassifier", ptr %9, i32 0, i32 1
  %13 = call noundef i64 @_ZNKSt6vectorIN2cv3VecIhLi4EEESaIS2_EE4sizeEv(ptr noundef nonnull align 8 dereferenceable(24) %12) #3
  %14 = trunc i64 %13 to i32
  %15 = icmp slt i32 %11, %14
  br i1 %15, label %17, label %16

16:                                               ; preds = %10
  call void @llvm.lifetime.end.p0(i64 4, ptr %8) #3
  br label %78

17:                                               ; preds = %10
  %18 = load i32, ptr %7, align 4, !tbaa !10
  %19 = shl i32 %18, 1
  store i32 %19, ptr %7, align 4, !tbaa !10
  %20 = load ptr, ptr %5, align 8, !tbaa !62
  %21 = load i32, ptr %6, align 4, !tbaa !10
  %22 = getelementptr inbounds nuw %"class.cv::tracking::impl::tld::TLDEnsembleClassifier", ptr %9, i32 0, i32 1
  %23 = load i32, ptr %8, align 4, !tbaa !10
  %24 = sext i32 %23 to i64
  %25 = call noundef nonnull align 1 dereferenceable(4) ptr @_ZNKSt6vectorIN2cv3VecIhLi4EEESaIS2_EEixEm(ptr noundef nonnull align 8 dereferenceable(24) %22, i64 noundef %24) #3
  %26 = getelementptr inbounds nuw %"class.cv::Matx", ptr %25, i32 0, i32 0
  %27 = getelementptr inbounds [4 x i8], ptr %26, i64 0, i64 2
  %28 = load i8, ptr %27, align 1, !tbaa !44
  %29 = zext i8 %28 to i32
  %30 = mul nsw i32 %21, %29
  %31 = sext i32 %30 to i64
  %32 = getelementptr inbounds i8, ptr %20, i64 %31
  %33 = getelementptr inbounds nuw %"class.cv::tracking::impl::tld::TLDEnsembleClassifier", ptr %9, i32 0, i32 1
  %34 = load i32, ptr %8, align 4, !tbaa !10
  %35 = sext i32 %34 to i64
  %36 = call noundef nonnull align 1 dereferenceable(4) ptr @_ZNKSt6vectorIN2cv3VecIhLi4EEESaIS2_EEixEm(ptr noundef nonnull align 8 dereferenceable(24) %33, i64 noundef %35) #3
  %37 = getelementptr inbounds nuw %"class.cv::Matx", ptr %36, i32 0, i32 0
  %38 = getelementptr inbounds [4 x i8], ptr %37, i64 0, i64 0
  %39 = load i8, ptr %38, align 1, !tbaa !44
  %40 = zext i8 %39 to i32
  %41 = sext i32 %40 to i64
  %42 = getelementptr inbounds i8, ptr %32, i64 %41
  %43 = load i8, ptr %42, align 1, !tbaa !44
  %44 = zext i8 %43 to i32
  %45 = load ptr, ptr %5, align 8, !tbaa !62
  %46 = load i32, ptr %6, align 4, !tbaa !10
  %47 = getelementptr inbounds nuw %"class.cv::tracking::impl::tld::TLDEnsembleClassifier", ptr %9, i32 0, i32 1
  %48 = load i32, ptr %8, align 4, !tbaa !10
  %49 = sext i32 %48 to i64
  %50 = call noundef nonnull align 1 dereferenceable(4) ptr @_ZNKSt6vectorIN2cv3VecIhLi4EEESaIS2_EEixEm(ptr noundef nonnull align 8 dereferenceable(24) %47, i64 noundef %49) #3
  %51 = getelementptr inbounds nuw %"class.cv::Matx", ptr %50, i32 0, i32 0
  %52 = getelementptr inbounds [4 x i8], ptr %51, i64 0, i64 3
  %53 = load i8, ptr %52, align 1, !tbaa !44
  %54 = zext i8 %53 to i32
  %55 = mul nsw i32 %46, %54
  %56 = sext i32 %55 to i64
  %57 = getelementptr inbounds i8, ptr %45, i64 %56
  %58 = getelementptr inbounds nuw %"class.cv::tracking::impl::tld::TLDEnsembleClassifier", ptr %9, i32 0, i32 1
  %59 = load i32, ptr %8, align 4, !tbaa !10
  %60 = sext i32 %59 to i64
  %61 = call noundef nonnull align 1 dereferenceable(4) ptr @_ZNKSt6vectorIN2cv3VecIhLi4EEESaIS2_EEixEm(ptr noundef nonnull align 8 dereferenceable(24) %58, i64 noundef %60) #3
  %62 = getelementptr inbounds nuw %"class.cv::Matx", ptr %61, i32 0, i32 0
  %63 = getelementptr inbounds [4 x i8], ptr %62, i64 0, i64 1
  %64 = load i8, ptr %63, align 1, !tbaa !44
  %65 = zext i8 %64 to i32
  %66 = sext i32 %65 to i64
  %67 = getelementptr inbounds i8, ptr %57, i64 %66
  %68 = load i8, ptr %67, align 1, !tbaa !44
  %69 = zext i8 %68 to i32
  %70 = icmp slt i32 %44, %69
  br i1 %70, label %71, label %74

71:                                               ; preds = %17
  %72 = load i32, ptr %7, align 4, !tbaa !10
  %73 = add nsw i32 %72, 1
  store i32 %73, ptr %7, align 4, !tbaa !10
  br label %74

74:                                               ; preds = %71, %17
  br label %75

75:                                               ; preds = %74
  %76 = load i32, ptr %8, align 4, !tbaa !10
  %77 = add nsw i32 %76, 1
  store i32 %77, ptr %8, align 4, !tbaa !10
  br label %10, !llvm.loop !63

78:                                               ; preds = %16
  %79 = load i32, ptr %7, align 4, !tbaa !10
  call void @llvm.lifetime.end.p0(i64 4, ptr %7) #3
  ret i32 %79
}

; Function Attrs: inlinehint mustprogress nounwind uwtable
define linkonce_odr hidden noundef nonnull align 8 dereferenceable(8) ptr @_ZNK2cv7MatStepixEi(ptr noundef nonnull align 8 dereferenceable(24) %0, i32 noundef %1) #7 comdat align 2 {
  %3 = alloca ptr, align 8
  %4 = alloca i32, align 4
  store ptr %0, ptr %3, align 8, !tbaa !64
  store i32 %1, ptr %4, align 4, !tbaa !10
  %5 = load ptr, ptr %3, align 8
  %6 = getelementptr inbounds nuw %"struct.cv::MatStep", ptr %5, i32 0, i32 0
  %7 = load ptr, ptr %6, align 8, !tbaa !66
  %8 = load i32, ptr %4, align 4, !tbaa !10
  %9 = sext i32 %8 to i64
  %10 = getelementptr inbounds i64, ptr %7, i64 %9
  ret ptr %10
}

; Function Attrs: mustprogress uwtable
define hidden void @_ZN2cv8tracking4impl3tld21TLDEnsembleClassifier9integrateERKNS_4Mat_IhEEb(ptr noundef nonnull align 8 dereferenceable(76) %0, ptr noundef nonnull align 8 dereferenceable(96) %1, i1 noundef zeroext %2) #4 align 2 {
  %4 = alloca ptr, align 8
  %5 = alloca ptr, align 8
  %6 = alloca i8, align 1
  %7 = alloca i32, align 4
  store ptr %0, ptr %4, align 8, !tbaa !3
  store ptr %1, ptr %5, align 8, !tbaa !47
  %8 = zext i1 %2 to i8
  store i8 %8, ptr %6, align 1, !tbaa !49
  %9 = load ptr, ptr %4, align 8
  call void @llvm.lifetime.start.p0(i64 4, ptr %7) #3
  %10 = load ptr, ptr %5, align 8, !tbaa !47
  %11 = getelementptr inbounds nuw %"class.cv::Mat", ptr %10, i32 0, i32 4
  %12 = load ptr, ptr %11, align 8, !tbaa !51
  %13 = load ptr, ptr %5, align 8, !tbaa !47
  %14 = getelementptr inbounds nuw %"class.cv::Mat", ptr %13, i32 0, i32 11
  %15 = call noundef nonnull align 8 dereferenceable(8) ptr @_ZNK2cv7MatStepixEi(ptr noundef nonnull align 8 dereferenceable(24) %14, i32 noundef 0) #3
  %16 = load i64, ptr %15, align 8, !tbaa !28
  %17 = trunc i64 %16 to i32
  %18 = call noundef i32 @_ZNK2cv8tracking4impl3tld21TLDEnsembleClassifier4codeEPKhi(ptr noundef nonnull align 8 dereferenceable(76) %9, ptr noundef %12, i32 noundef %17)
  store i32 %18, ptr %7, align 4, !tbaa !10
  %19 = load i8, ptr %6, align 1, !tbaa !49, !range !60, !noundef !61
  %20 = trunc i8 %19 to i1
  br i1 %20, label %21, label %29

21:                                               ; preds = %3
  %22 = getelementptr inbounds nuw %"class.cv::tracking::impl::tld::TLDEnsembleClassifier", ptr %9, i32 0, i32 0
  %23 = load i32, ptr %7, align 4, !tbaa !10
  %24 = sext i32 %23 to i64
  %25 = call noundef nonnull align 4 dereferenceable(8) ptr @_ZNSt6vectorIN2cv6Point_IiEESaIS2_EEixEm(ptr noundef nonnull align 8 dereferenceable(24) %22, i64 noundef %24) #3
  %26 = getelementptr inbounds nuw %"class.cv::Point_", ptr %25, i32 0, i32 0
  %27 = load i32, ptr %26, align 4, !tbaa !31
  %28 = add nsw i32 %27, 1
  store i32 %28, ptr %26, align 4, !tbaa !31
  br label %37

29:                                               ; preds = %3
  %30 = getelementptr inbounds nuw %"class.cv::tracking::impl::tld::TLDEnsembleClassifier", ptr %9, i32 0, i32 0
  %31 = load i32, ptr %7, align 4, !tbaa !10
  %32 = sext i32 %31 to i64
  %33 = call noundef nonnull align 4 dereferenceable(8) ptr @_ZNSt6vectorIN2cv6Point_IiEESaIS2_EEixEm(ptr noundef nonnull align 8 dereferenceable(24) %30, i64 noundef %32) #3
  %34 = getelementptr inbounds nuw %"class.cv::Point_", ptr %33, i32 0, i32 1
  %35 = load i32, ptr %34, align 4, !tbaa !33
  %36 = add nsw i32 %35, 1
  store i32 %36, ptr %34, align 4, !tbaa !33
  br label %37

37:                                               ; preds = %29, %21
  call void @llvm.lifetime.end.p0(i64 4, ptr %7) #3
  ret void
}