; Function Attrs: mustprogress nofree norecurse nosync nounwind memory(readwrite, inaccessiblemem: none) uwtable
define hidden void @_ZN2cv8tracking4impl3tld21TLDEnsembleClassifier9integrateERKNS_4Mat_IhEEb(ptr noundef nonnull readonly align 8 captures(none) dereferenceable(76) %0, ptr noundef nonnull readonly align 8 captures(none) dereferenceable(96) %1, i1 noundef zeroext %2) local_unnamed_addr #5 align 2 {
  %4 = getelementptr inbounds nuw i8, ptr %1, i64 16
  %5 = load ptr, ptr %4, align 8, !tbaa !32
  %6 = getelementptr inbounds nuw i8, ptr %0, i64 24
  %7 = getelementptr inbounds nuw i8, ptr %0, i64 32
  %8 = load ptr, ptr %7, align 8, !tbaa !27
  %9 = load ptr, ptr %6, align 8, !tbaa !26
  %10 = ptrtoint ptr %8 to i64
  %11 = ptrtoint ptr %9 to i64
  %12 = sub i64 %10, %11
  %13 = lshr exact i64 %12, 2
  %14 = trunc i64 %13 to i32
  %15 = icmp sgt i32 %14, 0
  br i1 %15, label %.lr.ph.preheader.i, label %_ZNK2cv8tracking4impl3tld21TLDEnsembleClassifier4codeEPKhi.exit

.lr.ph.preheader.i:                               ; preds = %3
  %16 = getelementptr inbounds nuw i8, ptr %1, i64 72
  %17 = load ptr, ptr %16, align 8, !tbaa !41
  %18 = load i64, ptr %17, align 8, !tbaa !42
  %wide.trip.count.i = and i64 %13, 2147483647
  %19 = shl i64 %18, 32
  br label %.lr.ph.i

.lr.ph.i:                                         ; preds = %.lr.ph.i, %.lr.ph.preheader.i
  %indvars.iv.i = phi i64 [ 0, %.lr.ph.preheader.i ], [ %indvars.iv.next.i, %.lr.ph.i ]
  %.01314.i = phi i32 [ 0, %.lr.ph.preheader.i ], [ %spec.select.i, %.lr.ph.i ]
  %20 = shl i32 %.01314.i, 1
  %21 = getelementptr inbounds nuw %"class.cv::Vec", ptr %9, i64 %indvars.iv.i
  %22 = getelementptr inbounds nuw i8, ptr %21, i64 2
  %23 = load i8, ptr %22, align 1, !tbaa !28
  %24 = zext i8 %23 to i64
  %sext = mul i64 %19, %24
  %25 = ashr exact i64 %sext, 32
  %26 = getelementptr inbounds i8, ptr %5, i64 %25
  %27 = load i8, ptr %21, align 1, !tbaa !28
  %28 = zext i8 %27 to i64
  %29 = getelementptr inbounds nuw i8, ptr %26, i64 %28
  %30 = load i8, ptr %29, align 1, !tbaa !28
  %31 = getelementptr inbounds nuw i8, ptr %21, i64 3
  %32 = load i8, ptr %31, align 1, !tbaa !28
  %33 = zext i8 %32 to i64
  %sext5 = mul i64 %19, %33
  %34 = ashr exact i64 %sext5, 32
  %35 = getelementptr inbounds i8, ptr %5, i64 %34
  %36 = getelementptr inbounds nuw i8, ptr %21, i64 1
  %37 = load i8, ptr %36, align 1, !tbaa !28
  %38 = zext i8 %37 to i64
  %39 = getelementptr inbounds nuw i8, ptr %35, i64 %38
  %40 = load i8, ptr %39, align 1, !tbaa !28
  %41 = icmp ult i8 %30, %40
  %42 = zext i1 %41 to i32
  %spec.select.i = or disjoint i32 %20, %42
  %indvars.iv.next.i = add nuw nsw i64 %indvars.iv.i, 1
  %exitcond.not.i = icmp eq i64 %indvars.iv.next.i, %wide.trip.count.i
  br i1 %exitcond.not.i, label %_ZNK2cv8tracking4impl3tld21TLDEnsembleClassifier4codeEPKhi.exit.loopexit, label %.lr.ph.i, !llvm.loop !44

_ZNK2cv8tracking4impl3tld21TLDEnsembleClassifier4codeEPKhi.exit.loopexit: ; preds = %.lr.ph.i
  %43 = sext i32 %spec.select.i to i64
  br label %_ZNK2cv8tracking4impl3tld21TLDEnsembleClassifier4codeEPKhi.exit

_ZNK2cv8tracking4impl3tld21TLDEnsembleClassifier4codeEPKhi.exit: ; preds = %_ZNK2cv8tracking4impl3tld21TLDEnsembleClassifier4codeEPKhi.exit.loopexit, %3
  %.013.lcssa.i = phi i64 [ 0, %3 ], [ %43, %_ZNK2cv8tracking4impl3tld21TLDEnsembleClassifier4codeEPKhi.exit.loopexit ]
  %44 = load ptr, ptr %0, align 8, !tbaa !25
  br i1 %2, label %45, label %49

45:                                               ; preds = %_ZNK2cv8tracking4impl3tld21TLDEnsembleClassifier4codeEPKhi.exit
  %46 = getelementptr inbounds nuw %"class.cv::Point_", ptr %44, i64 %.013.lcssa.i
  %47 = load i32, ptr %46, align 4, !tbaa !19
  %48 = add nsw i32 %47, 1
  store i32 %48, ptr %46, align 4, !tbaa !19
  br label %53

49:                                               ; preds = %_ZNK2cv8tracking4impl3tld21TLDEnsembleClassifier4codeEPKhi.exit
  %50 = getelementptr inbounds nuw %"class.cv::Point_", ptr %44, i64 %.013.lcssa.i, i32 1
  %51 = load i32, ptr %50, align 4, !tbaa !21
  %52 = add nsw i32 %51, 1
  store i32 %52, ptr %50, align 4, !tbaa !21
  br label %53

53:                                               ; preds = %49, %45
  ret void
}